; Function Attrs: nounwind uwtable
define void @cli_hashtab_delete(ptr noundef readonly %0, ptr noundef readonly %1, i64 noundef %2) local_unnamed_addr #0 {
  %.not.i = icmp eq ptr %0, null
  br i1 %.not.i, label %cli_hashtab_find.exit.thread, label %4

4:                                                ; preds = %3
  %5 = getelementptr inbounds i8, ptr %0, i64 8
  %6 = load i64, ptr %5, align 8
  %.not.i.i = icmp eq i64 %2, 0
  br i1 %.not.i.i, label %hash.exit.i, label %.lr.ph.i.i

.lr.ph.i.i:                                       ; preds = %4, %.lr.ph.i.i
  %.010.i.i = phi i64 [ %22, %.lr.ph.i.i ], [ 0, %4 ]
  %.089.i.i = phi i32 [ %21, %.lr.ph.i.i ], [ 1, %4 ]
  %7 = getelementptr inbounds i8, ptr %1, i64 %.010.i.i
  %8 = load i8, ptr %7, align 1
  %9 = zext i8 %8 to i32
  %10 = add i32 %.089.i.i, %9
  %11 = xor i32 %10, -1
  %12 = shl i32 %10, 15
  %13 = add i32 %12, %11
  %14 = lshr i32 %13, 12
  %15 = xor i32 %14, %13
  %16 = mul i32 %15, 5
  %17 = lshr i32 %16, 4
  %18 = xor i32 %17, %16
  %19 = mul i32 %18, 2057
  %20 = lshr i32 %19, 16
  %21 = xor i32 %20, %19
  %22 = add nuw i64 %.010.i.i, 1
  %exitcond.not.i.i = icmp eq i64 %22, %2
  br i1 %exitcond.not.i.i, label %._crit_edge.loopexit.i.i, label %.lr.ph.i.i

._crit_edge.loopexit.i.i:                         ; preds = %.lr.ph.i.i
  %23 = zext i32 %21 to i64
  br label %hash.exit.i

hash.exit.i:                                      ; preds = %._crit_edge.loopexit.i.i, %4
  %.08.lcssa.i.i = phi i64 [ 1, %4 ], [ %23, %._crit_edge.loopexit.i.i ]
  %24 = add i64 %6, -1
  %25 = load ptr, ptr %0, align 8
  br label %26

26:                                               ; preds = %38, %hash.exit.i
  %.023.i = phi i64 [ 1, %hash.exit.i ], [ %39, %38 ]
  %.08.lcssa.i.pn.i = phi i64 [ %.08.lcssa.i.i, %hash.exit.i ], [ %40, %38 ]
  %.0.i = and i64 %.08.lcssa.i.pn.i, %24
  %.024.i = getelementptr inbounds %struct.cli_element, ptr %25, i64 %.0.i
  %27 = load ptr, ptr %.024.i, align 8
  %.not31.i = icmp eq ptr %27, null
  br i1 %.not31.i, label %cli_hashtab_find.exit.thread, label %28

28:                                               ; preds = %26
  %.not32.i = icmp eq ptr %27, @DELETED_KEY
  br i1 %.not32.i, label %38, label %29

29:                                               ; preds = %28
  %30 = getelementptr inbounds i8, ptr %.024.i, i64 16
  %31 = load i64, ptr %30, align 8
  %32 = icmp eq i64 %31, %2
  br i1 %32, label %33, label %38

33:                                               ; preds = %29
  %34 = icmp eq ptr %27, %1
  br i1 %34, label %cli_hashtab_find.exit, label %35

35:                                               ; preds = %33
  %36 = tail call i32 @strncmp(ptr noundef %1, ptr noundef nonnull %27, i64 noundef %2) #19
  %37 = icmp eq i32 %36, 0
  br i1 %37, label %cli_hashtab_find.exit, label %38

38:                                               ; preds = %35, %29, %28
  %39 = add i64 %.023.i, 1
  %40 = add i64 %.0.i, %.023.i
  %.not33.i = icmp ugt i64 %39, %6
  br i1 %.not33.i, label %cli_hashtab_find.exit.thread, label %26

cli_hashtab_find.exit:                            ; preds = %33, %35
  tail call void @free(ptr noundef %27) #18
  store ptr @DELETED_KEY, ptr %.024.i, align 8
  br label %cli_hashtab_find.exit.thread

cli_hashtab_find.exit.thread:                     ; preds = %26, %38, %3, %cli_hashtab_find.exit
  ret void
}